; Function Attrs: mustprogress nofree norecurse nosync nounwind memory(argmem: readwrite) uwtable
define void @_ZN2cv3hal21warpAffineBlocklineNNEPiS1_Psiii(ptr noundef readonly captures(none) %0, ptr noundef readonly captures(none) %1, ptr noundef writeonly captures(none) %2, i32 noundef %3, i32 noundef %4, i32 noundef %5) local_unnamed_addr #9 personality ptr @__gxx_personality_v0 {
  %7 = icmp sgt i32 %5, 0
  br i1 %7, label %.lr.ph.preheader, label %._crit_edge

.lr.ph.preheader:                                 ; preds = %6
  %wide.trip.count = zext nneg i32 %5 to i64
  br label %.lr.ph

.lr.ph:                                           ; preds = %.lr.ph.preheader, %.lr.ph
  %indvars.iv = phi i64 [ 0, %.lr.ph.preheader ], [ %indvars.iv.next, %.lr.ph ]
  %8 = getelementptr inbounds nuw i32, ptr %0, i64 %indvars.iv
  %9 = load i32, ptr %8, align 4, !tbaa !28
  %10 = add nsw i32 %9, %3
  %11 = ashr i32 %10, 10
  %12 = getelementptr inbounds nuw i32, ptr %1, i64 %indvars.iv
  %13 = load i32, ptr %12, align 4, !tbaa !28
  %14 = add nsw i32 %13, %4
  %15 = ashr i32 %14, 10
  %16 = tail call i32 @llvm.smax.i32(i32 %11, i32 -32768)
  %17 = tail call i32 @llvm.smin.i32(i32 %16, i32 32767)
  %18 = trunc nsw i32 %17 to i16
  %19 = shl nuw nsw i64 %indvars.iv, 1
  %20 = getelementptr inbounds nuw i16, ptr %2, i64 %19
  store i16 %18, ptr %20, align 2, !tbaa !72
  %21 = tail call i32 @llvm.smax.i32(i32 %15, i32 -32768)
  %22 = tail call i32 @llvm.smin.i32(i32 %21, i32 32767)
  %23 = trunc nsw i32 %22 to i16
  %24 = or disjoint i64 %19, 1
  %25 = getelementptr inbounds nuw i16, ptr %2, i64 %24
  store i16 %23, ptr %25, align 2, !tbaa !72
  %indvars.iv.next = add nuw nsw i64 %indvars.iv, 1
  %exitcond.not = icmp eq i64 %indvars.iv.next, %wide.trip.count
  br i1 %exitcond.not, label %._crit_edge, label %.lr.ph, !llvm.loop !511

._crit_edge:                                      ; preds = %.lr.ph, %6
  ret void
}